target datalayout = "e-m:e-p270:32:32-p271:32:32-p272:64:64-i64:64-i128:128-f80:128-n8:16:32:64-S128"
target triple = "x86_64-pc-linux-gnu"

; Function Attrs: mustprogress uwtable
define noundef i32 @_ZN6LibRaw6streadEPcmP26LibRaw_abstract_datastream(ptr noundef %0, i64 noundef %1, ptr noundef %2) #3 align 2 {
  %4 = alloca i32, align 4
  %5 = alloca ptr, align 8
  %6 = alloca i64, align 8
  %7 = alloca ptr, align 8
  %8 = alloca i32, align 4
  store ptr %0, ptr %5, align 8, !tbaa !10
  store i64 %1, ptr %6, align 8, !tbaa !41
  store ptr %2, ptr %7, align 8, !tbaa !144
  %9 = load i64, ptr %6, align 8, !tbaa !41
  %10 = icmp ugt i64 %9, 0
  br i1 %10, label %11, label %24

11:                                               ; preds = %3
  call void @llvm.lifetime.start.p0(i64 4, ptr %8) #18
  %12 = load ptr, ptr %7, align 8, !tbaa !144
  %13 = load ptr, ptr %5, align 8, !tbaa !10
  %14 = load i64, ptr %6, align 8, !tbaa !41
  %15 = load ptr, ptr %12, align 8, !tbaa !102
  %16 = getelementptr inbounds ptr, ptr %15, i64 3
  %17 = load ptr, ptr %16, align 8
  %18 = call noundef i32 %17(ptr noundef nonnull align 8 dereferenceable(8) %12, ptr noundef %13, i64 noundef %14, i64 noundef 1)
  store i32 %18, ptr %8, align 4, !tbaa !12
  %19 = load ptr, ptr %5, align 8, !tbaa !10
  %20 = load i64, ptr %6, align 8, !tbaa !41
  %21 = sub i64 %20, 1
  %22 = getelementptr inbounds nuw i8, ptr %19, i64 %21
  store i8 0, ptr %22, align 1, !tbaa !22
  %23 = load i32, ptr %8, align 4, !tbaa !12
  store i32 %23, ptr %4, align 4
  call void @llvm.lifetime.end.p0(i64 4, ptr %8) #18
  br label %25

24:                                               ; preds = %3
  store i32 0, ptr %4, align 4
  br label %25

25:                                               ; preds = %24, %11
  %26 = load i32, ptr %4, align 4
  ret i32 %26
}