; Function Attrs: mustprogress uwtable
define noundef i32 @_ZN6LibRaw6streadEPcmP26LibRaw_abstract_datastream(ptr noundef %0, i64 noundef %1, ptr noundef %2) local_unnamed_addr #4 align 2 {
  %.not = icmp eq i64 %1, 0
  br i1 %.not, label %11, label %4

4:                                                ; preds = %3
  %5 = load ptr, ptr %2, align 8, !tbaa !99
  %6 = getelementptr inbounds nuw i8, ptr %5, i64 24
  %7 = load ptr, ptr %6, align 8
  %8 = tail call noundef i32 %7(ptr noundef nonnull align 8 dereferenceable(8) %2, ptr noundef %0, i64 noundef %1, i64 noundef 1)
  %9 = getelementptr i8, ptr %0, i64 %1
  %10 = getelementptr i8, ptr %9, i64 -1
  store i8 0, ptr %10, align 1, !tbaa !23
  br label %11

11:                                               ; preds = %3, %4
  %.0 = phi i32 [ %8, %4 ], [ 0, %3 ]
  ret i32 %.0
}